; Function Attrs: mustprogress uwtable
define void @_ZN6icu_7516DateIntervalInfoC2ERKS0_(ptr noundef nonnull align 8 dereferenceable(88) %this, ptr noundef nonnull align 8 dereferenceable(88) %dtitvinf) unnamed_addr #1 align 2 personality ptr @__gxx_personality_v0 {
invoke.cont:
  %status.i = alloca i32, align 4
  store ptr getelementptr inbounds ({ [7 x ptr] }, ptr @_ZTVN6icu_7516DateIntervalInfoE, i64 0, i32 0, i64 2), ptr %this, align 8
  %fFallbackIntervalPattern = getelementptr inbounds i8, ptr %this, i64 8
  store ptr getelementptr inbounds ({ [13 x ptr] }, ptr @_ZTVN6icu_7513UnicodeStringE, i64 0, i32 0, i64 2), ptr %fFallbackIntervalPattern, align 8
  %fUnion2.i = getelementptr inbounds i8, ptr %this, i64 16
  store i16 2, ptr %fUnion2.i, align 8
  %fIntervalPatterns = getelementptr inbounds i8, ptr %this, i64 80
  store ptr null, ptr %fIntervalPatterns, align 8
  call void @llvm.lifetime.start.p0(i64 4, ptr nonnull %status.i)
  %cmp.i = icmp eq ptr %this, %dtitvinf
  br i1 %cmp.i, label %invoke.cont3, label %if.end.i

if.end.i:                                         ; preds = %invoke.cont
  store i32 0, ptr %status.i, align 4
  invoke void @_ZN6icu_7516DateIntervalInfo10deleteHashEPNS_9HashtableE(ptr noundef nonnull align 8 dereferenceable(88) %this, ptr noundef null)
          to label %.noexc unwind label %lpad2

.noexc:                                           ; preds = %if.end.i
  %call.i3 = invoke noundef ptr @_ZN6icu_7516DateIntervalInfo8initHashER10UErrorCode(ptr nonnull align 8 poison, ptr noundef nonnull align 4 dereferenceable(4) %status.i)
          to label %call.i.noexc unwind label %lpad2

call.i.noexc:                                     ; preds = %.noexc
  store ptr %call.i3, ptr %fIntervalPatterns, align 8
  %fIntervalPatterns3.i = getelementptr inbounds i8, ptr %dtitvinf, i64 80
  %0 = load ptr, ptr %fIntervalPatterns3.i, align 8
  invoke void @_ZN6icu_7516DateIntervalInfo8copyHashEPKNS_9HashtableEPS1_R10UErrorCode(ptr nonnull align 8 poison, ptr noundef %0, ptr noundef %call.i3, ptr noundef nonnull align 4 dereferenceable(4) %status.i)
          to label %.noexc4 unwind label %lpad2

.noexc4:                                          ; preds = %call.i.noexc
  %1 = load i32, ptr %status.i, align 4
  %cmp.i.i = icmp slt i32 %1, 1
  br i1 %cmp.i.i, label %if.end7.i, label %invoke.cont3

if.end7.i:                                        ; preds = %.noexc4
  %fFallbackIntervalPattern.i = getelementptr inbounds i8, ptr %dtitvinf, i64 8
  %call9.i5 = invoke noundef nonnull align 8 dereferenceable(64) ptr @_ZN6icu_7513UnicodeStringaSERKS0_(ptr noundef nonnull align 8 dereferenceable(64) %fFallbackIntervalPattern, ptr noundef nonnull align 8 dereferenceable(64) %fFallbackIntervalPattern.i)
          to label %call9.i.noexc unwind label %lpad2

call9.i.noexc:                                    ; preds = %if.end7.i
  %fFirstDateInPtnIsLaterDate.i = getelementptr inbounds i8, ptr %dtitvinf, i64 72
  %2 = load i8, ptr %fFirstDateInPtnIsLaterDate.i, align 8
  %fFirstDateInPtnIsLaterDate10.i = getelementptr inbounds i8, ptr %this, i64 72
  store i8 %2, ptr %fFirstDateInPtnIsLaterDate10.i, align 8
  br label %invoke.cont3

invoke.cont3:                                     ; preds = %call9.i.noexc, %.noexc4, %invoke.cont
  call void @llvm.lifetime.end.p0(i64 4, ptr nonnull %status.i)
  ret void

lpad2:                                            ; preds = %if.end7.i, %call.i.noexc, %.noexc, %if.end.i
  %3 = landingpad { ptr, i32 }
          cleanup
  call void @_ZN6icu_7513UnicodeStringD1Ev(ptr noundef nonnull align 8 dereferenceable(64) %fFallbackIntervalPattern) #15
  call void @_ZN6icu_757UObjectD2Ev(ptr noundef nonnull align 8 dereferenceable(8) %this) #15
  resume { ptr, i32 } %3
}